target datalayout = "e-m:e-p270:32:32-p271:32:32-p272:64:64-i64:64-i128:128-f80:128-n8:16:32:64-S128"
target triple = "x86_64-pc-linux-gnu"

; Function Attrs: inlinehint mustprogress nounwind uwtable
define internal noundef signext i8 @_ZL9U_FAILURE10UErrorCode(i32 noundef %0) #6 {
  %2 = alloca i32, align 4
  store i32 %0, ptr %2, align 4, !tbaa !25
  %3 = load i32, ptr %2, align 4, !tbaa !25
  %4 = icmp sgt i32 %3, 0
  %5 = zext i1 %4 to i8
  ret i8 %5
}

; Function Attrs: mustprogress uwtable
define noundef i32 @_ZN6icu_778Collator25getEquivalentReorderCodesEiPiiR10UErrorCode(i32 noundef %0, ptr noundef %1, i32 noundef %2, ptr noundef nonnull align 4 dereferenceable(4) %3) #3 align 2 {
  %5 = alloca i32, align 4
  %6 = alloca i32, align 4
  %7 = alloca ptr, align 8
  %8 = alloca i32, align 4
  %9 = alloca ptr, align 8
  %10 = alloca ptr, align 8
  %11 = alloca i32, align 4
  store i32 %0, ptr %6, align 4, !tbaa !39
  store ptr %1, ptr %7, align 8, !tbaa !63
  store i32 %2, ptr %8, align 4, !tbaa !39
  store ptr %3, ptr %9, align 8, !tbaa !18
  %12 = load ptr, ptr %9, align 8, !tbaa !18
  %13 = load i32, ptr %12, align 4, !tbaa !25
  %14 = call noundef signext i8 @_ZL9U_FAILURE10UErrorCode(i32 noundef %13)
  %15 = icmp ne i8 %14, 0
  br i1 %15, label %16, label %17

16:                                               ; preds = %4
  store i32 0, ptr %5, align 4
  br label %44

17:                                               ; preds = %4
  %18 = load i32, ptr %8, align 4, !tbaa !39
  %19 = icmp slt i32 %18, 0
  br i1 %19, label %26, label %20

20:                                               ; preds = %17
  %21 = load ptr, ptr %7, align 8, !tbaa !63
  %22 = icmp eq ptr %21, null
  br i1 %22, label %23, label %28

23:                                               ; preds = %20
  %24 = load i32, ptr %8, align 4, !tbaa !39
  %25 = icmp sgt i32 %24, 0
  br i1 %25, label %26, label %28

26:                                               ; preds = %23, %17
  %27 = load ptr, ptr %9, align 8, !tbaa !18
  store i32 1, ptr %27, align 4, !tbaa !25
  store i32 0, ptr %5, align 4
  br label %44

28:                                               ; preds = %23, %20
  call void @llvm.lifetime.start.p0(i64 8, ptr %10) #14
  %29 = load ptr, ptr %9, align 8, !tbaa !18
  %30 = call noundef ptr @_ZN6icu_7713CollationRoot7getDataER10UErrorCode(ptr noundef nonnull align 4 dereferenceable(4) %29)
  store ptr %30, ptr %10, align 8, !tbaa !105
  %31 = load ptr, ptr %9, align 8, !tbaa !18
  %32 = load i32, ptr %31, align 4, !tbaa !25
  %33 = call noundef signext i8 @_ZL9U_FAILURE10UErrorCode(i32 noundef %32)
  %34 = icmp ne i8 %33, 0
  br i1 %34, label %35, label %36

35:                                               ; preds = %28
  store i32 0, ptr %5, align 4
  store i32 1, ptr %11, align 4
  br label %43

36:                                               ; preds = %28
  %37 = load ptr, ptr %10, align 8, !tbaa !105
  %38 = load i32, ptr %6, align 4, !tbaa !39
  %39 = load ptr, ptr %7, align 8, !tbaa !63
  %40 = load i32, ptr %8, align 4, !tbaa !39
  %41 = load ptr, ptr %9, align 8, !tbaa !18
  %42 = call noundef i32 @_ZNK6icu_7713CollationData20getEquivalentScriptsEiPiiR10UErrorCode(ptr noundef nonnull align 8 dereferenceable(140) %37, i32 noundef %38, ptr noundef %39, i32 noundef %40, ptr noundef nonnull align 4 dereferenceable(4) %41)
  store i32 %42, ptr %5, align 4
  store i32 1, ptr %11, align 4
  br label %43

43:                                               ; preds = %36, %35
  call void @llvm.lifetime.end.p0(i64 8, ptr %10) #14
  br label %44

44:                                               ; preds = %43, %26, %16
  %45 = load i32, ptr %5, align 4
  ret i32 %45
}