; Function Attrs: mustprogress uwtable
define noundef i32 @_ZN6icu_778Collator25getEquivalentReorderCodesEiPiiR10UErrorCode(i32 noundef %0, ptr noundef %1, i32 noundef %2, ptr noundef nonnull align 4 dereferenceable(4) %3) local_unnamed_addr #5 align 2 {
  %5 = load i32, ptr %3, align 4, !tbaa !6
  %6 = icmp slt i32 %5, 1
  br i1 %6, label %7, label %19

7:                                                ; preds = %4
  %8 = icmp slt i32 %2, 0
  br i1 %8, label %12, label %9

9:                                                ; preds = %7
  %10 = icmp eq ptr %1, null
  %11 = icmp ne i32 %2, 0
  %or.cond = and i1 %10, %11
  br i1 %or.cond, label %12, label %13

12:                                               ; preds = %9, %7
  store i32 1, ptr %3, align 4, !tbaa !6
  br label %19

13:                                               ; preds = %9
  %14 = tail call noundef ptr @_ZN6icu_7713CollationRoot7getDataER10UErrorCode(ptr noundef nonnull align 4 dereferenceable(4) %3)
  %15 = load i32, ptr %3, align 4, !tbaa !6
  %16 = icmp slt i32 %15, 1
  br i1 %16, label %17, label %19

17:                                               ; preds = %13
  %18 = tail call noundef i32 @_ZNK6icu_7713CollationData20getEquivalentScriptsEiPiiR10UErrorCode(ptr noundef nonnull align 8 dereferenceable(140) %14, i32 noundef %0, ptr noundef %1, i32 noundef %2, ptr noundef nonnull align 4 dereferenceable(4) %3)
  br label %19

19:                                               ; preds = %17, %13, %4, %12
  %.0 = phi i32 [ 0, %12 ], [ 0, %4 ], [ %18, %17 ], [ 0, %13 ]
  ret i32 %.0
}